target datalayout = "e-m:e-p270:32:32-p271:32:32-p272:64:64-i64:64-i128:128-f80:128-n8:16:32:64-S128"
target triple = "x86_64-pc-linux-gnu"

%"class.icu_77::MaybeStackArray" = type <{ ptr, i32, i8, [40 x i8], [3 x i8] }>
%"class.icu_77::BytesTrie::Iterator" = type { ptr, ptr, ptr, i32, i32, ptr, i32, i32, ptr }
%"class.icu_77::CharString" = type { %"class.icu_77::MaybeStackArray", i32, [4 x i8] }
%"class.icu_77::BytesTrie" = type <{ ptr, ptr, ptr, i32, [4 x i8] }>

@_ZN6icu_7715MaybeStackArrayIcLi40EEC1Ev = weak_odr unnamed_addr alias void (ptr), ptr @_ZN6icu_7715MaybeStackArrayIcLi40EEC2Ev

; Function Attrs: mustprogress nounwind uwtable
define weak_odr noundef nonnull align 1 dereferenceable(1) ptr @_ZN6icu_7715MaybeStackArrayIcLi40EEixEl(ptr noundef nonnull align 8 dereferenceable(53) %0, i64 noundef %1) #0 comdat align 2 {
  %3 = alloca ptr, align 8
  %4 = alloca i64, align 8
  store ptr %0, ptr %3, align 8, !tbaa !3
  store i64 %1, ptr %4, align 8, !tbaa !18
  %5 = load ptr, ptr %3, align 8
  %6 = getelementptr inbounds nuw %"class.icu_77::MaybeStackArray", ptr %5, i32 0, i32 0
  %7 = load ptr, ptr %6, align 8, !tbaa !8
  %8 = load i64, ptr %4, align 8, !tbaa !18
  %9 = getelementptr inbounds i8, ptr %7, i64 %8
  ret ptr %9
}

; Function Attrs: mustprogress uwtable
define linkonce_odr void @_ZN6icu_7710CharStringC2Ev(ptr noundef nonnull align 8 dereferenceable(60) %0) unnamed_addr #1 comdat align 2 {
  %2 = alloca ptr, align 8
  store ptr %0, ptr %2, align 8, !tbaa !37
  %3 = load ptr, ptr %2, align 8
  %4 = getelementptr inbounds nuw %"class.icu_77::CharString", ptr %3, i32 0, i32 0
  call void @_ZN6icu_7715MaybeStackArrayIcLi40EEC1Ev(ptr noundef nonnull align 8 dereferenceable(53) %4)
  %5 = getelementptr inbounds nuw %"class.icu_77::CharString", ptr %3, i32 0, i32 1
  store i32 0, ptr %5, align 8, !tbaa !38
  %6 = getelementptr inbounds nuw %"class.icu_77::CharString", ptr %3, i32 0, i32 0
  %7 = call noundef nonnull align 1 dereferenceable(1) ptr @_ZN6icu_7715MaybeStackArrayIcLi40EEixEl(ptr noundef nonnull align 8 dereferenceable(53) %6, i64 noundef 0)
  store i8 0, ptr %7, align 1, !tbaa !40
  ret void
}

; Function Attrs: inlinehint mustprogress nounwind uwtable
define internal noundef signext i8 @_ZL9U_FAILURE10UErrorCode(i32 noundef %0) #2 {
  %2 = alloca i32, align 4
  store i32 %0, ptr %2, align 4, !tbaa !15
  %3 = load i32, ptr %2, align 4, !tbaa !15
  %4 = icmp sgt i32 %3, 0
  %5 = zext i1 %4 to i8
  ret i8 %5
}

; Function Attrs: mustprogress uwtable
define void @_ZN6icu_779BytesTrie8IteratorC2ERKS0_iR10UErrorCode(ptr noundef nonnull align 8 dereferenceable(56) %0, ptr noundef nonnull align 8 dereferenceable(28) %1, i32 noundef %2, ptr noundef nonnull align 4 dereferenceable(4) %3) unnamed_addr #1 align 2 personality ptr @__gxx_personality_v0 {
  %5 = alloca ptr, align 8
  %6 = alloca ptr, align 8
  %7 = alloca i32, align 4
  %8 = alloca ptr, align 8
  %9 = alloca ptr, align 8
  %10 = alloca i1, align 1
  %11 = alloca ptr, align 8
  %12 = alloca i32, align 4
  %13 = alloca ptr, align 8
  %14 = alloca i1, align 1
  %15 = alloca i32, align 4
  store ptr %0, ptr %5, align 8, !tbaa !23
  store ptr %1, ptr %6, align 8, !tbaa !41
  store i32 %2, ptr %7, align 4, !tbaa !14
  store ptr %3, ptr %8, align 8, !tbaa !22
  %16 = load ptr, ptr %5, align 8
  %17 = getelementptr inbounds nuw %"class.icu_77::BytesTrie::Iterator", ptr %16, i32 0, i32 0
  %18 = load ptr, ptr %6, align 8, !tbaa !41
  %19 = getelementptr inbounds nuw %"class.icu_77::BytesTrie", ptr %18, i32 0, i32 1
  %20 = load ptr, ptr %19, align 8, !tbaa !43
  store ptr %20, ptr %17, align 8, !tbaa !25
  %21 = getelementptr inbounds nuw %"class.icu_77::BytesTrie::Iterator", ptr %16, i32 0, i32 1
  %22 = load ptr, ptr %6, align 8, !tbaa !41
  %23 = getelementptr inbounds nuw %"class.icu_77::BytesTrie", ptr %22, i32 0, i32 2
  %24 = load ptr, ptr %23, align 8, !tbaa !45
  store ptr %24, ptr %21, align 8, !tbaa !29
  %25 = getelementptr inbounds nuw %"class.icu_77::BytesTrie::Iterator", ptr %16, i32 0, i32 2
  %26 = load ptr, ptr %6, align 8, !tbaa !41
  %27 = getelementptr inbounds nuw %"class.icu_77::BytesTrie", ptr %26, i32 0, i32 2
  %28 = load ptr, ptr %27, align 8, !tbaa !45
  store ptr %28, ptr %25, align 8, !tbaa !30
  %29 = getelementptr inbounds nuw %"class.icu_77::BytesTrie::Iterator", ptr %16, i32 0, i32 3
  %30 = load ptr, ptr %6, align 8, !tbaa !41
  %31 = getelementptr inbounds nuw %"class.icu_77::BytesTrie", ptr %30, i32 0, i32 3
  %32 = load i32, ptr %31, align 8, !tbaa !46
  store i32 %32, ptr %29, align 8, !tbaa !31
  %33 = getelementptr inbounds nuw %"class.icu_77::BytesTrie::Iterator", ptr %16, i32 0, i32 4
  %34 = load ptr, ptr %6, align 8, !tbaa !41
  %35 = getelementptr inbounds nuw %"class.icu_77::BytesTrie", ptr %34, i32 0, i32 3
  %36 = load i32, ptr %35, align 8, !tbaa !46
  store i32 %36, ptr %33, align 4, !tbaa !32
  %37 = getelementptr inbounds nuw %"class.icu_77::BytesTrie::Iterator", ptr %16, i32 0, i32 5
  store ptr null, ptr %37, align 8, !tbaa !33
  %38 = getelementptr inbounds nuw %"class.icu_77::BytesTrie::Iterator", ptr %16, i32 0, i32 6
  %39 = load i32, ptr %7, align 4, !tbaa !14
  store i32 %39, ptr %38, align 8, !tbaa !34
  %40 = getelementptr inbounds nuw %"class.icu_77::BytesTrie::Iterator", ptr %16, i32 0, i32 7
  store i32 0, ptr %40, align 4, !tbaa !35
  %41 = getelementptr inbounds nuw %"class.icu_77::BytesTrie::Iterator", ptr %16, i32 0, i32 8
  store ptr null, ptr %41, align 8, !tbaa !36
  %42 = load ptr, ptr %8, align 8, !tbaa !22
  %43 = load i32, ptr %42, align 4, !tbaa !15
  %44 = call noundef signext i8 @_ZL9U_FAILURE10UErrorCode(i32 noundef %43)
  %45 = icmp ne i8 %44, 0
  br i1 %45, label %46, label %47

46:                                               ; preds = %4
  br label %131

47:                                               ; preds = %4
  %48 = call noundef ptr @_ZN6icu_777UMemorynwEm(i64 noundef 64) #10
  %49 = icmp eq ptr %48, null
  store i1 false, ptr %10, align 1
  br i1 %49, label %52, label %50

50:                                               ; preds = %47
  store ptr %48, ptr %9, align 8
  store i1 true, ptr %10, align 1
  invoke void @_ZN6icu_7710CharStringC2Ev(ptr noundef nonnull align 8 dereferenceable(60) %48)
          to label %51 unwind label %68

51:                                               ; preds = %50
  br label %52

52:                                               ; preds = %51, %47
  %53 = phi ptr [ %48, %51 ], [ null, %47 ]
  %54 = getelementptr inbounds nuw %"class.icu_77::BytesTrie::Iterator", ptr %16, i32 0, i32 5
  store ptr %53, ptr %54, align 8, !tbaa !33
  %55 = call noundef ptr @_ZN6icu_777UMemorynwEm(i64 noundef 32) #10
  %56 = icmp eq ptr %55, null
  store i1 false, ptr %14, align 1
  br i1 %56, label %60, label %57

57:                                               ; preds = %52
  store ptr %55, ptr %13, align 8
  store i1 true, ptr %14, align 1
  %58 = load ptr, ptr %8, align 8, !tbaa !22
  invoke void @_ZN6icu_779UVector32C1ER10UErrorCode(ptr noundef nonnull align 8 dereferenceable(32) %55, ptr noundef nonnull align 4 dereferenceable(4) %58)
          to label %59 unwind label %76

59:                                               ; preds = %57
  br label %60

60:                                               ; preds = %59, %52
  %61 = phi ptr [ %55, %59 ], [ null, %52 ]
  %62 = getelementptr inbounds nuw %"class.icu_77::BytesTrie::Iterator", ptr %16, i32 0, i32 8
  store ptr %61, ptr %62, align 8, !tbaa !36
  %63 = load ptr, ptr %8, align 8, !tbaa !22
  %64 = load i32, ptr %63, align 4, !tbaa !15
  %65 = call noundef signext i8 @_ZL9U_FAILURE10UErrorCode(i32 noundef %64)
  %66 = icmp ne i8 %65, 0
  br i1 %66, label %67, label %84

67:                                               ; preds = %60
  br label %131

68:                                               ; preds = %50
  %69 = landingpad { ptr, i32 }
          cleanup
  %70 = extractvalue { ptr, i32 } %69, 0
  store ptr %70, ptr %11, align 8
  %71 = extractvalue { ptr, i32 } %69, 1
  store i32 %71, ptr %12, align 4
  %72 = load i1, ptr %10, align 1
  br i1 %72, label %73, label %75

73:                                               ; preds = %68
  %74 = load ptr, ptr %9, align 8
  call void @_ZN6icu_777UMemorydlEPv(ptr noundef %74) #10
  br label %75

75:                                               ; preds = %73, %68
  br label %132

76:                                               ; preds = %57
  %77 = landingpad { ptr, i32 }
          cleanup
  %78 = extractvalue { ptr, i32 } %77, 0
  store ptr %78, ptr %11, align 8
  %79 = extractvalue { ptr, i32 } %77, 1
  store i32 %79, ptr %12, align 4
  %80 = load i1, ptr %14, align 1
  br i1 %80, label %81, label %83

81:                                               ; preds = %76
  %82 = load ptr, ptr %13, align 8
  call void @_ZN6icu_777UMemorydlEPv(ptr noundef %82) #10
  br label %83

83:                                               ; preds = %81, %76
  br label %132

84:                                               ; preds = %60
  %85 = getelementptr inbounds nuw %"class.icu_77::BytesTrie::Iterator", ptr %16, i32 0, i32 5
  %86 = load ptr, ptr %85, align 8, !tbaa !33
  %87 = icmp eq ptr %86, null
  br i1 %87, label %92, label %88

88:                                               ; preds = %84
  %89 = getelementptr inbounds nuw %"class.icu_77::BytesTrie::Iterator", ptr %16, i32 0, i32 8
  %90 = load ptr, ptr %89, align 8, !tbaa !36
  %91 = icmp eq ptr %90, null
  br i1 %91, label %92, label %94

92:                                               ; preds = %88, %84
  %93 = load ptr, ptr %8, align 8, !tbaa !22
  store i32 7, ptr %93, align 4, !tbaa !15
  br label %131

94:                                               ; preds = %88
  call void @llvm.lifetime.start.p0(i64 4, ptr %15) #10
  %95 = getelementptr inbounds nuw %"class.icu_77::BytesTrie::Iterator", ptr %16, i32 0, i32 3
  %96 = load i32, ptr %95, align 8, !tbaa !31
  store i32 %96, ptr %15, align 4, !tbaa !14
  %97 = load i32, ptr %15, align 4, !tbaa !14
  %98 = icmp sge i32 %97, 0
  br i1 %98, label %99, label %130

99:                                               ; preds = %94
  %100 = load i32, ptr %15, align 4, !tbaa !14
  %101 = add nsw i32 %100, 1
  store i32 %101, ptr %15, align 4, !tbaa !14
  %102 = getelementptr inbounds nuw %"class.icu_77::BytesTrie::Iterator", ptr %16, i32 0, i32 6
  %103 = load i32, ptr %102, align 8, !tbaa !34
  %104 = icmp sgt i32 %103, 0
  br i1 %104, label %105, label %113

105:                                              ; preds = %99
  %106 = load i32, ptr %15, align 4, !tbaa !14
  %107 = getelementptr inbounds nuw %"class.icu_77::BytesTrie::Iterator", ptr %16, i32 0, i32 6
  %108 = load i32, ptr %107, align 8, !tbaa !34
  %109 = icmp sgt i32 %106, %108
  br i1 %109, label %110, label %113

110:                                              ; preds = %105
  %111 = getelementptr inbounds nuw %"class.icu_77::BytesTrie::Iterator", ptr %16, i32 0, i32 6
  %112 = load i32, ptr %111, align 8, !tbaa !34
  store i32 %112, ptr %15, align 4, !tbaa !14
  br label %113

113:                                              ; preds = %110, %105, %99
  %114 = getelementptr inbounds nuw %"class.icu_77::BytesTrie::Iterator", ptr %16, i32 0, i32 5
  %115 = load ptr, ptr %114, align 8, !tbaa !33
  %116 = getelementptr inbounds nuw %"class.icu_77::BytesTrie::Iterator", ptr %16, i32 0, i32 1
  %117 = load ptr, ptr %116, align 8, !tbaa !29
  %118 = load i32, ptr %15, align 4, !tbaa !14
  %119 = load ptr, ptr %8, align 8, !tbaa !22
  %120 = call noundef nonnull align 8 dereferenceable(60) ptr @_ZN6icu_7710CharString6appendEPKciR10UErrorCode(ptr noundef nonnull align 8 dereferenceable(60) %115, ptr noundef %117, i32 noundef %118, ptr noundef nonnull align 4 dereferenceable(4) %119)
  %121 = load i32, ptr %15, align 4, !tbaa !14
  %122 = getelementptr inbounds nuw %"class.icu_77::BytesTrie::Iterator", ptr %16, i32 0, i32 1
  %123 = load ptr, ptr %122, align 8, !tbaa !29
  %124 = sext i32 %121 to i64
  %125 = getelementptr inbounds i8, ptr %123, i64 %124
  store ptr %125, ptr %122, align 8, !tbaa !29
  %126 = load i32, ptr %15, align 4, !tbaa !14
  %127 = getelementptr inbounds nuw %"class.icu_77::BytesTrie::Iterator", ptr %16, i32 0, i32 3
  %128 = load i32, ptr %127, align 8, !tbaa !31
  %129 = sub nsw i32 %128, %126
  store i32 %129, ptr %127, align 8, !tbaa !31
  br label %130

130:                                              ; preds = %113, %94
  call void @llvm.lifetime.end.p0(i64 4, ptr %15) #10
  br label %131

131:                                              ; preds = %130, %92, %67, %46
  ret void

132:                                              ; preds = %83, %75
  %133 = load ptr, ptr %11, align 8
  %134 = load i32, ptr %12, align 4
  %135 = insertvalue { ptr, i32 } poison, ptr %133, 0
  %136 = insertvalue { ptr, i32 } %135, i32 %134, 1
  resume { ptr, i32 } %136
}