; Function Attrs: mustprogress uwtable
define void @_ZN6icu_779BytesTrie8IteratorC2ERKS0_iR10UErrorCode(ptr noundef nonnull align 8 captures(none) dereferenceable(56) initializes((0, 56)) %0, ptr noundef nonnull readonly align 8 captures(none) dereferenceable(28) %1, i32 noundef %2, ptr noundef nonnull align 4 dereferenceable(4) %3) unnamed_addr #1 align 2 personality ptr @__gxx_personality_v0 {
  %5 = getelementptr inbounds nuw i8, ptr %1, i64 8
  %6 = load ptr, ptr %5, align 8, !tbaa !30
  store ptr %6, ptr %0, align 8, !tbaa !15
  %7 = getelementptr inbounds nuw i8, ptr %0, i64 8
  %8 = getelementptr inbounds nuw i8, ptr %1, i64 16
  %9 = load ptr, ptr %8, align 8, !tbaa !32
  store ptr %9, ptr %7, align 8, !tbaa !19
  %10 = getelementptr inbounds nuw i8, ptr %0, i64 16
  store ptr %9, ptr %10, align 8, !tbaa !20
  %11 = getelementptr inbounds nuw i8, ptr %0, i64 24
  %12 = getelementptr inbounds nuw i8, ptr %1, i64 24
  %13 = load i32, ptr %12, align 8, !tbaa !33
  store i32 %13, ptr %11, align 8, !tbaa !21
  %14 = getelementptr inbounds nuw i8, ptr %0, i64 28
  store i32 %13, ptr %14, align 4, !tbaa !22
  %15 = getelementptr inbounds nuw i8, ptr %0, i64 32
  store ptr null, ptr %15, align 8, !tbaa !23
  %16 = getelementptr inbounds nuw i8, ptr %0, i64 40
  store i32 %2, ptr %16, align 8, !tbaa !24
  %17 = getelementptr inbounds nuw i8, ptr %0, i64 44
  store i32 0, ptr %17, align 4, !tbaa !25
  %18 = getelementptr inbounds nuw i8, ptr %0, i64 48
  store ptr null, ptr %18, align 8, !tbaa !26
  %19 = load i32, ptr %3, align 4, !tbaa !13
  %20 = icmp slt i32 %19, 1
  br i1 %20, label %21, label %56

21:                                               ; preds = %4
  %22 = tail call noundef ptr @_ZN6icu_777UMemorynwEm(i64 noundef 64) #13
  %23 = icmp eq ptr %22, null
  br i1 %23, label %27, label %24

24:                                               ; preds = %21
  invoke void @_ZN6icu_7715MaybeStackArrayIcLi40EEC1Ev(ptr noundef nonnull align 8 dereferenceable(60) %22)
          to label %_ZN6icu_7710CharStringC2Ev.exit unwind label %34

_ZN6icu_7710CharStringC2Ev.exit:                  ; preds = %24
  %25 = getelementptr inbounds nuw i8, ptr %22, i64 56
  store i32 0, ptr %25, align 8, !tbaa !27
  %26 = load ptr, ptr %22, align 8, !tbaa !3
  store i8 0, ptr %26, align 1, !tbaa !29
  br label %27

27:                                               ; preds = %_ZN6icu_7710CharStringC2Ev.exit, %21
  store ptr %22, ptr %15, align 8, !tbaa !23
  %28 = tail call noundef ptr @_ZN6icu_777UMemorynwEm(i64 noundef 32) #13
  %29 = icmp eq ptr %28, null
  br i1 %29, label %31, label %30

30:                                               ; preds = %27
  invoke void @_ZN6icu_779UVector32C1ER10UErrorCode(ptr noundef nonnull align 8 dereferenceable(32) %28, ptr noundef nonnull align 4 dereferenceable(4) %3)
          to label %31 unwind label %36

31:                                               ; preds = %30, %27
  store ptr %28, ptr %18, align 8, !tbaa !26
  %32 = load i32, ptr %3, align 4, !tbaa !13
  %33 = icmp slt i32 %32, 1
  br i1 %33, label %38, label %56

34:                                               ; preds = %24
  %35 = landingpad { ptr, i32 }
          cleanup
  br label %57

36:                                               ; preds = %30
  %37 = landingpad { ptr, i32 }
          cleanup
  br label %57

38:                                               ; preds = %31
  %39 = load ptr, ptr %15, align 8, !tbaa !23
  %40 = icmp eq ptr %39, null
  %or.cond = or i1 %29, %40
  br i1 %or.cond, label %41, label %42

41:                                               ; preds = %38
  store i32 7, ptr %3, align 4, !tbaa !13
  br label %56

42:                                               ; preds = %38
  %43 = load i32, ptr %11, align 8, !tbaa !21
  %44 = icmp sgt i32 %43, -1
  br i1 %44, label %45, label %56

45:                                               ; preds = %42
  %46 = add nuw nsw i32 %43, 1
  %47 = load i32, ptr %16, align 8, !tbaa !24
  %48 = icmp slt i32 %47, 1
  %.not32 = icmp slt i32 %43, %47
  %or.cond34 = or i1 %48, %.not32
  %.0 = select i1 %or.cond34, i32 %46, i32 %47
  %49 = load ptr, ptr %7, align 8, !tbaa !19
  %50 = tail call noundef nonnull align 8 dereferenceable(60) ptr @_ZN6icu_7710CharString6appendEPKciR10UErrorCode(ptr noundef nonnull align 8 dereferenceable(60) %39, ptr noundef %49, i32 noundef %.0, ptr noundef nonnull align 4 dereferenceable(4) %3)
  %51 = load ptr, ptr %7, align 8, !tbaa !19
  %52 = zext nneg i32 %.0 to i64
  %53 = getelementptr inbounds nuw i8, ptr %51, i64 %52
  store ptr %53, ptr %7, align 8, !tbaa !19
  %54 = load i32, ptr %11, align 8, !tbaa !21
  %55 = sub nsw i32 %54, %.0
  store i32 %55, ptr %11, align 8, !tbaa !21
  br label %56

56:                                               ; preds = %42, %45, %31, %4, %41
  ret void

57:                                               ; preds = %36, %34
  %.sink = phi ptr [ %28, %36 ], [ %22, %34 ]
  %.pn = phi { ptr, i32 } [ %37, %36 ], [ %35, %34 ]
  tail call void @_ZN6icu_777UMemorydlEPv(ptr noundef nonnull %.sink) #13
  resume { ptr, i32 } %.pn
}